ARM GAS  C:\Users\Admin\AppData\Local\Temp\ccmPaHrb.s 			page 1


   1              		.cpu cortex-m3
   2              		.arch armv7-m
   3              		.fpu softvfp
   4              		.eabi_attribute 20, 1
   5              		.eabi_attribute 21, 1
   6              		.eabi_attribute 23, 3
   7              		.eabi_attribute 24, 1
   8              		.eabi_attribute 25, 1
   9              		.eabi_attribute 26, 1
  10              		.eabi_attribute 30, 6
  11              		.eabi_attribute 34, 1
  12              		.eabi_attribute 18, 4
  13              		.file	"stm32f10x_pwr.c"
  14              		.text
  15              	.Ltext0:
  16              		.cfi_sections	.debug_frame
  17              		.section	.text.PWR_DeInit,"ax",%progbits
  18              		.align	1
  19              		.global	PWR_DeInit
  20              		.syntax unified
  21              		.thumb
  22              		.thumb_func
  24              	PWR_DeInit:
  25              	.LFB65:
  26              		.file 1 "Drivers/STM32F10x_StdPeriph_Driver/src/stm32f10x_pwr.c"
   1:Drivers/STM32F10x_StdPeriph_Driver/src/stm32f10x_pwr.c **** /**
   2:Drivers/STM32F10x_StdPeriph_Driver/src/stm32f10x_pwr.c ****   ******************************************************************************
   3:Drivers/STM32F10x_StdPeriph_Driver/src/stm32f10x_pwr.c ****   * @file    stm32f10x_pwr.c
   4:Drivers/STM32F10x_StdPeriph_Driver/src/stm32f10x_pwr.c ****   * @author  MCD Application Team
   5:Drivers/STM32F10x_StdPeriph_Driver/src/stm32f10x_pwr.c ****   * @version V3.5.0
   6:Drivers/STM32F10x_StdPeriph_Driver/src/stm32f10x_pwr.c ****   * @date    11-March-2011
   7:Drivers/STM32F10x_StdPeriph_Driver/src/stm32f10x_pwr.c ****   * @brief   This file provides all the PWR firmware functions.
   8:Drivers/STM32F10x_StdPeriph_Driver/src/stm32f10x_pwr.c ****   ******************************************************************************
   9:Drivers/STM32F10x_StdPeriph_Driver/src/stm32f10x_pwr.c ****   * @attention
  10:Drivers/STM32F10x_StdPeriph_Driver/src/stm32f10x_pwr.c ****   *
  11:Drivers/STM32F10x_StdPeriph_Driver/src/stm32f10x_pwr.c ****   * THE PRESENT FIRMWARE WHICH IS FOR GUIDANCE ONLY AIMS AT PROVIDING CUSTOMERS
  12:Drivers/STM32F10x_StdPeriph_Driver/src/stm32f10x_pwr.c ****   * WITH CODING INFORMATION REGARDING THEIR PRODUCTS IN ORDER FOR THEM TO SAVE
  13:Drivers/STM32F10x_StdPeriph_Driver/src/stm32f10x_pwr.c ****   * TIME. AS A RESULT, STMICROELECTRONICS SHALL NOT BE HELD LIABLE FOR ANY
  14:Drivers/STM32F10x_StdPeriph_Driver/src/stm32f10x_pwr.c ****   * DIRECT, INDIRECT OR CONSEQUENTIAL DAMAGES WITH RESPECT TO ANY CLAIMS ARISING
  15:Drivers/STM32F10x_StdPeriph_Driver/src/stm32f10x_pwr.c ****   * FROM THE CONTENT OF SUCH FIRMWARE AND/OR THE USE MADE BY CUSTOMERS OF THE
  16:Drivers/STM32F10x_StdPeriph_Driver/src/stm32f10x_pwr.c ****   * CODING INFORMATION CONTAINED HEREIN IN CONNECTION WITH THEIR PRODUCTS.
  17:Drivers/STM32F10x_StdPeriph_Driver/src/stm32f10x_pwr.c ****   *
  18:Drivers/STM32F10x_StdPeriph_Driver/src/stm32f10x_pwr.c ****   * <h2><center>&copy; COPYRIGHT 2011 STMicroelectronics</center></h2>
  19:Drivers/STM32F10x_StdPeriph_Driver/src/stm32f10x_pwr.c ****   ******************************************************************************
  20:Drivers/STM32F10x_StdPeriph_Driver/src/stm32f10x_pwr.c ****   */
  21:Drivers/STM32F10x_StdPeriph_Driver/src/stm32f10x_pwr.c **** 
  22:Drivers/STM32F10x_StdPeriph_Driver/src/stm32f10x_pwr.c **** /* Includes ------------------------------------------------------------------*/
  23:Drivers/STM32F10x_StdPeriph_Driver/src/stm32f10x_pwr.c **** #include "stm32f10x_pwr.h"
  24:Drivers/STM32F10x_StdPeriph_Driver/src/stm32f10x_pwr.c **** #include "stm32f10x_rcc.h"
  25:Drivers/STM32F10x_StdPeriph_Driver/src/stm32f10x_pwr.c **** 
  26:Drivers/STM32F10x_StdPeriph_Driver/src/stm32f10x_pwr.c **** /** @addtogroup STM32F10x_StdPeriph_Driver
  27:Drivers/STM32F10x_StdPeriph_Driver/src/stm32f10x_pwr.c ****   * @{
  28:Drivers/STM32F10x_StdPeriph_Driver/src/stm32f10x_pwr.c ****   */
  29:Drivers/STM32F10x_StdPeriph_Driver/src/stm32f10x_pwr.c **** 
  30:Drivers/STM32F10x_StdPeriph_Driver/src/stm32f10x_pwr.c **** /** @defgroup PWR 
  31:Drivers/STM32F10x_StdPeriph_Driver/src/stm32f10x_pwr.c ****   * @brief PWR driver modules
  32:Drivers/STM32F10x_StdPeriph_Driver/src/stm32f10x_pwr.c ****   * @{
ARM GAS  C:\Users\Admin\AppData\Local\Temp\ccmPaHrb.s 			page 2


  33:Drivers/STM32F10x_StdPeriph_Driver/src/stm32f10x_pwr.c ****   */ 
  34:Drivers/STM32F10x_StdPeriph_Driver/src/stm32f10x_pwr.c **** 
  35:Drivers/STM32F10x_StdPeriph_Driver/src/stm32f10x_pwr.c **** /** @defgroup PWR_Private_TypesDefinitions
  36:Drivers/STM32F10x_StdPeriph_Driver/src/stm32f10x_pwr.c ****   * @{
  37:Drivers/STM32F10x_StdPeriph_Driver/src/stm32f10x_pwr.c ****   */
  38:Drivers/STM32F10x_StdPeriph_Driver/src/stm32f10x_pwr.c **** 
  39:Drivers/STM32F10x_StdPeriph_Driver/src/stm32f10x_pwr.c **** /**
  40:Drivers/STM32F10x_StdPeriph_Driver/src/stm32f10x_pwr.c ****   * @}
  41:Drivers/STM32F10x_StdPeriph_Driver/src/stm32f10x_pwr.c ****   */
  42:Drivers/STM32F10x_StdPeriph_Driver/src/stm32f10x_pwr.c **** 
  43:Drivers/STM32F10x_StdPeriph_Driver/src/stm32f10x_pwr.c **** /** @defgroup PWR_Private_Defines
  44:Drivers/STM32F10x_StdPeriph_Driver/src/stm32f10x_pwr.c ****   * @{
  45:Drivers/STM32F10x_StdPeriph_Driver/src/stm32f10x_pwr.c ****   */
  46:Drivers/STM32F10x_StdPeriph_Driver/src/stm32f10x_pwr.c **** 
  47:Drivers/STM32F10x_StdPeriph_Driver/src/stm32f10x_pwr.c **** /* --------- PWR registers bit address in the alias region ---------- */
  48:Drivers/STM32F10x_StdPeriph_Driver/src/stm32f10x_pwr.c **** #define PWR_OFFSET               (PWR_BASE - PERIPH_BASE)
  49:Drivers/STM32F10x_StdPeriph_Driver/src/stm32f10x_pwr.c **** 
  50:Drivers/STM32F10x_StdPeriph_Driver/src/stm32f10x_pwr.c **** /* --- CR Register ---*/
  51:Drivers/STM32F10x_StdPeriph_Driver/src/stm32f10x_pwr.c **** 
  52:Drivers/STM32F10x_StdPeriph_Driver/src/stm32f10x_pwr.c **** /* Alias word address of DBP bit */
  53:Drivers/STM32F10x_StdPeriph_Driver/src/stm32f10x_pwr.c **** #define CR_OFFSET                (PWR_OFFSET + 0x00)
  54:Drivers/STM32F10x_StdPeriph_Driver/src/stm32f10x_pwr.c **** #define DBP_BitNumber            0x08
  55:Drivers/STM32F10x_StdPeriph_Driver/src/stm32f10x_pwr.c **** #define CR_DBP_BB                (PERIPH_BB_BASE + (CR_OFFSET * 32) + (DBP_BitNumber * 4))
  56:Drivers/STM32F10x_StdPeriph_Driver/src/stm32f10x_pwr.c **** 
  57:Drivers/STM32F10x_StdPeriph_Driver/src/stm32f10x_pwr.c **** /* Alias word address of PVDE bit */
  58:Drivers/STM32F10x_StdPeriph_Driver/src/stm32f10x_pwr.c **** #define PVDE_BitNumber           0x04
  59:Drivers/STM32F10x_StdPeriph_Driver/src/stm32f10x_pwr.c **** #define CR_PVDE_BB               (PERIPH_BB_BASE + (CR_OFFSET * 32) + (PVDE_BitNumber * 4))
  60:Drivers/STM32F10x_StdPeriph_Driver/src/stm32f10x_pwr.c **** 
  61:Drivers/STM32F10x_StdPeriph_Driver/src/stm32f10x_pwr.c **** /* --- CSR Register ---*/
  62:Drivers/STM32F10x_StdPeriph_Driver/src/stm32f10x_pwr.c **** 
  63:Drivers/STM32F10x_StdPeriph_Driver/src/stm32f10x_pwr.c **** /* Alias word address of EWUP bit */
  64:Drivers/STM32F10x_StdPeriph_Driver/src/stm32f10x_pwr.c **** #define CSR_OFFSET               (PWR_OFFSET + 0x04)
  65:Drivers/STM32F10x_StdPeriph_Driver/src/stm32f10x_pwr.c **** #define EWUP_BitNumber           0x08
  66:Drivers/STM32F10x_StdPeriph_Driver/src/stm32f10x_pwr.c **** #define CSR_EWUP_BB              (PERIPH_BB_BASE + (CSR_OFFSET * 32) + (EWUP_BitNumber * 4))
  67:Drivers/STM32F10x_StdPeriph_Driver/src/stm32f10x_pwr.c **** 
  68:Drivers/STM32F10x_StdPeriph_Driver/src/stm32f10x_pwr.c **** /* ------------------ PWR registers bit mask ------------------------ */
  69:Drivers/STM32F10x_StdPeriph_Driver/src/stm32f10x_pwr.c **** 
  70:Drivers/STM32F10x_StdPeriph_Driver/src/stm32f10x_pwr.c **** /* CR register bit mask */
  71:Drivers/STM32F10x_StdPeriph_Driver/src/stm32f10x_pwr.c **** #define CR_DS_MASK               ((uint32_t)0xFFFFFFFC)
  72:Drivers/STM32F10x_StdPeriph_Driver/src/stm32f10x_pwr.c **** #define CR_PLS_MASK              ((uint32_t)0xFFFFFF1F)
  73:Drivers/STM32F10x_StdPeriph_Driver/src/stm32f10x_pwr.c **** 
  74:Drivers/STM32F10x_StdPeriph_Driver/src/stm32f10x_pwr.c **** 
  75:Drivers/STM32F10x_StdPeriph_Driver/src/stm32f10x_pwr.c **** /**
  76:Drivers/STM32F10x_StdPeriph_Driver/src/stm32f10x_pwr.c ****   * @}
  77:Drivers/STM32F10x_StdPeriph_Driver/src/stm32f10x_pwr.c ****   */
  78:Drivers/STM32F10x_StdPeriph_Driver/src/stm32f10x_pwr.c **** 
  79:Drivers/STM32F10x_StdPeriph_Driver/src/stm32f10x_pwr.c **** /** @defgroup PWR_Private_Macros
  80:Drivers/STM32F10x_StdPeriph_Driver/src/stm32f10x_pwr.c ****   * @{
  81:Drivers/STM32F10x_StdPeriph_Driver/src/stm32f10x_pwr.c ****   */
  82:Drivers/STM32F10x_StdPeriph_Driver/src/stm32f10x_pwr.c **** 
  83:Drivers/STM32F10x_StdPeriph_Driver/src/stm32f10x_pwr.c **** /**
  84:Drivers/STM32F10x_StdPeriph_Driver/src/stm32f10x_pwr.c ****   * @}
  85:Drivers/STM32F10x_StdPeriph_Driver/src/stm32f10x_pwr.c ****   */
  86:Drivers/STM32F10x_StdPeriph_Driver/src/stm32f10x_pwr.c **** 
  87:Drivers/STM32F10x_StdPeriph_Driver/src/stm32f10x_pwr.c **** /** @defgroup PWR_Private_Variables
  88:Drivers/STM32F10x_StdPeriph_Driver/src/stm32f10x_pwr.c ****   * @{
  89:Drivers/STM32F10x_StdPeriph_Driver/src/stm32f10x_pwr.c ****   */
ARM GAS  C:\Users\Admin\AppData\Local\Temp\ccmPaHrb.s 			page 3


  90:Drivers/STM32F10x_StdPeriph_Driver/src/stm32f10x_pwr.c **** 
  91:Drivers/STM32F10x_StdPeriph_Driver/src/stm32f10x_pwr.c **** /**
  92:Drivers/STM32F10x_StdPeriph_Driver/src/stm32f10x_pwr.c ****   * @}
  93:Drivers/STM32F10x_StdPeriph_Driver/src/stm32f10x_pwr.c ****   */
  94:Drivers/STM32F10x_StdPeriph_Driver/src/stm32f10x_pwr.c **** 
  95:Drivers/STM32F10x_StdPeriph_Driver/src/stm32f10x_pwr.c **** /** @defgroup PWR_Private_FunctionPrototypes
  96:Drivers/STM32F10x_StdPeriph_Driver/src/stm32f10x_pwr.c ****   * @{
  97:Drivers/STM32F10x_StdPeriph_Driver/src/stm32f10x_pwr.c ****   */
  98:Drivers/STM32F10x_StdPeriph_Driver/src/stm32f10x_pwr.c **** 
  99:Drivers/STM32F10x_StdPeriph_Driver/src/stm32f10x_pwr.c **** /**
 100:Drivers/STM32F10x_StdPeriph_Driver/src/stm32f10x_pwr.c ****   * @}
 101:Drivers/STM32F10x_StdPeriph_Driver/src/stm32f10x_pwr.c ****   */
 102:Drivers/STM32F10x_StdPeriph_Driver/src/stm32f10x_pwr.c **** 
 103:Drivers/STM32F10x_StdPeriph_Driver/src/stm32f10x_pwr.c **** /** @defgroup PWR_Private_Functions
 104:Drivers/STM32F10x_StdPeriph_Driver/src/stm32f10x_pwr.c ****   * @{
 105:Drivers/STM32F10x_StdPeriph_Driver/src/stm32f10x_pwr.c ****   */
 106:Drivers/STM32F10x_StdPeriph_Driver/src/stm32f10x_pwr.c **** 
 107:Drivers/STM32F10x_StdPeriph_Driver/src/stm32f10x_pwr.c **** /**
 108:Drivers/STM32F10x_StdPeriph_Driver/src/stm32f10x_pwr.c ****   * @brief  Deinitializes the PWR peripheral registers to their default reset values.
 109:Drivers/STM32F10x_StdPeriph_Driver/src/stm32f10x_pwr.c ****   * @param  None
 110:Drivers/STM32F10x_StdPeriph_Driver/src/stm32f10x_pwr.c ****   * @retval None
 111:Drivers/STM32F10x_StdPeriph_Driver/src/stm32f10x_pwr.c ****   */
 112:Drivers/STM32F10x_StdPeriph_Driver/src/stm32f10x_pwr.c **** void PWR_DeInit(void)
 113:Drivers/STM32F10x_StdPeriph_Driver/src/stm32f10x_pwr.c **** {
  27              		.loc 1 113 1
  28              		.cfi_startproc
  29              		@ args = 0, pretend = 0, frame = 0
  30              		@ frame_needed = 1, uses_anonymous_args = 0
  31 0000 80B5     		push	{r7, lr}
  32              	.LCFI0:
  33              		.cfi_def_cfa_offset 8
  34              		.cfi_offset 7, -8
  35              		.cfi_offset 14, -4
  36 0002 00AF     		add	r7, sp, #0
  37              	.LCFI1:
  38              		.cfi_def_cfa_register 7
 114:Drivers/STM32F10x_StdPeriph_Driver/src/stm32f10x_pwr.c ****   RCC_APB1PeriphResetCmd(RCC_APB1Periph_PWR, ENABLE);
  39              		.loc 1 114 3
  40 0004 0121     		movs	r1, #1
  41 0006 4FF08050 		mov	r0, #268435456
  42 000a FFF7FEFF 		bl	RCC_APB1PeriphResetCmd
 115:Drivers/STM32F10x_StdPeriph_Driver/src/stm32f10x_pwr.c ****   RCC_APB1PeriphResetCmd(RCC_APB1Periph_PWR, DISABLE);
  43              		.loc 1 115 3
  44 000e 0021     		movs	r1, #0
  45 0010 4FF08050 		mov	r0, #268435456
  46 0014 FFF7FEFF 		bl	RCC_APB1PeriphResetCmd
 116:Drivers/STM32F10x_StdPeriph_Driver/src/stm32f10x_pwr.c **** }
  47              		.loc 1 116 1
  48 0018 00BF     		nop
  49 001a 80BD     		pop	{r7, pc}
  50              		.cfi_endproc
  51              	.LFE65:
  53              		.section	.text.PWR_BackupAccessCmd,"ax",%progbits
  54              		.align	1
  55              		.global	PWR_BackupAccessCmd
  56              		.syntax unified
  57              		.thumb
ARM GAS  C:\Users\Admin\AppData\Local\Temp\ccmPaHrb.s 			page 4


  58              		.thumb_func
  60              	PWR_BackupAccessCmd:
  61              	.LFB66:
 117:Drivers/STM32F10x_StdPeriph_Driver/src/stm32f10x_pwr.c **** 
 118:Drivers/STM32F10x_StdPeriph_Driver/src/stm32f10x_pwr.c **** /**
 119:Drivers/STM32F10x_StdPeriph_Driver/src/stm32f10x_pwr.c ****   * @brief  Enables or disables access to the RTC and backup registers.
 120:Drivers/STM32F10x_StdPeriph_Driver/src/stm32f10x_pwr.c ****   * @param  NewState: new state of the access to the RTC and backup registers.
 121:Drivers/STM32F10x_StdPeriph_Driver/src/stm32f10x_pwr.c ****   *   This parameter can be: ENABLE or DISABLE.
 122:Drivers/STM32F10x_StdPeriph_Driver/src/stm32f10x_pwr.c ****   * @retval None
 123:Drivers/STM32F10x_StdPeriph_Driver/src/stm32f10x_pwr.c ****   */
 124:Drivers/STM32F10x_StdPeriph_Driver/src/stm32f10x_pwr.c **** void PWR_BackupAccessCmd(FunctionalState NewState)
 125:Drivers/STM32F10x_StdPeriph_Driver/src/stm32f10x_pwr.c **** {
  62              		.loc 1 125 1
  63              		.cfi_startproc
  64              		@ args = 0, pretend = 0, frame = 8
  65              		@ frame_needed = 1, uses_anonymous_args = 0
  66              		@ link register save eliminated.
  67 0000 80B4     		push	{r7}
  68              	.LCFI2:
  69              		.cfi_def_cfa_offset 4
  70              		.cfi_offset 7, -4
  71 0002 83B0     		sub	sp, sp, #12
  72              	.LCFI3:
  73              		.cfi_def_cfa_offset 16
  74 0004 00AF     		add	r7, sp, #0
  75              	.LCFI4:
  76              		.cfi_def_cfa_register 7
  77 0006 0346     		mov	r3, r0
  78 0008 FB71     		strb	r3, [r7, #7]
 126:Drivers/STM32F10x_StdPeriph_Driver/src/stm32f10x_pwr.c ****   /* Check the parameters */
 127:Drivers/STM32F10x_StdPeriph_Driver/src/stm32f10x_pwr.c ****   assert_param(IS_FUNCTIONAL_STATE(NewState));
 128:Drivers/STM32F10x_StdPeriph_Driver/src/stm32f10x_pwr.c ****   *(__IO uint32_t *) CR_DBP_BB = (uint32_t)NewState;
  79              		.loc 1 128 3
  80 000a 044A     		ldr	r2, .L3
  81              		.loc 1 128 34
  82 000c FB79     		ldrb	r3, [r7, #7]	@ zero_extendqisi2
  83              		.loc 1 128 32
  84 000e 1360     		str	r3, [r2]
 129:Drivers/STM32F10x_StdPeriph_Driver/src/stm32f10x_pwr.c **** }
  85              		.loc 1 129 1
  86 0010 00BF     		nop
  87 0012 0C37     		adds	r7, r7, #12
  88              	.LCFI5:
  89              		.cfi_def_cfa_offset 4
  90 0014 BD46     		mov	sp, r7
  91              	.LCFI6:
  92              		.cfi_def_cfa_register 13
  93              		@ sp needed
  94 0016 80BC     		pop	{r7}
  95              	.LCFI7:
  96              		.cfi_restore 7
  97              		.cfi_def_cfa_offset 0
  98 0018 7047     		bx	lr
  99              	.L4:
 100 001a 00BF     		.align	2
 101              	.L3:
 102 001c 20000E42 		.word	1108213792
ARM GAS  C:\Users\Admin\AppData\Local\Temp\ccmPaHrb.s 			page 5


 103              		.cfi_endproc
 104              	.LFE66:
 106              		.section	.text.PWR_PVDCmd,"ax",%progbits
 107              		.align	1
 108              		.global	PWR_PVDCmd
 109              		.syntax unified
 110              		.thumb
 111              		.thumb_func
 113              	PWR_PVDCmd:
 114              	.LFB67:
 130:Drivers/STM32F10x_StdPeriph_Driver/src/stm32f10x_pwr.c **** 
 131:Drivers/STM32F10x_StdPeriph_Driver/src/stm32f10x_pwr.c **** /**
 132:Drivers/STM32F10x_StdPeriph_Driver/src/stm32f10x_pwr.c ****   * @brief  Enables or disables the Power Voltage Detector(PVD).
 133:Drivers/STM32F10x_StdPeriph_Driver/src/stm32f10x_pwr.c ****   * @param  NewState: new state of the PVD.
 134:Drivers/STM32F10x_StdPeriph_Driver/src/stm32f10x_pwr.c ****   *   This parameter can be: ENABLE or DISABLE.
 135:Drivers/STM32F10x_StdPeriph_Driver/src/stm32f10x_pwr.c ****   * @retval None
 136:Drivers/STM32F10x_StdPeriph_Driver/src/stm32f10x_pwr.c ****   */
 137:Drivers/STM32F10x_StdPeriph_Driver/src/stm32f10x_pwr.c **** void PWR_PVDCmd(FunctionalState NewState)
 138:Drivers/STM32F10x_StdPeriph_Driver/src/stm32f10x_pwr.c **** {
 115              		.loc 1 138 1
 116              		.cfi_startproc
 117              		@ args = 0, pretend = 0, frame = 8
 118              		@ frame_needed = 1, uses_anonymous_args = 0
 119              		@ link register save eliminated.
 120 0000 80B4     		push	{r7}
 121              	.LCFI8:
 122              		.cfi_def_cfa_offset 4
 123              		.cfi_offset 7, -4
 124 0002 83B0     		sub	sp, sp, #12
 125              	.LCFI9:
 126              		.cfi_def_cfa_offset 16
 127 0004 00AF     		add	r7, sp, #0
 128              	.LCFI10:
 129              		.cfi_def_cfa_register 7
 130 0006 0346     		mov	r3, r0
 131 0008 FB71     		strb	r3, [r7, #7]
 139:Drivers/STM32F10x_StdPeriph_Driver/src/stm32f10x_pwr.c ****   /* Check the parameters */
 140:Drivers/STM32F10x_StdPeriph_Driver/src/stm32f10x_pwr.c ****   assert_param(IS_FUNCTIONAL_STATE(NewState));
 141:Drivers/STM32F10x_StdPeriph_Driver/src/stm32f10x_pwr.c ****   *(__IO uint32_t *) CR_PVDE_BB = (uint32_t)NewState;
 132              		.loc 1 141 3
 133 000a 044A     		ldr	r2, .L6
 134              		.loc 1 141 35
 135 000c FB79     		ldrb	r3, [r7, #7]	@ zero_extendqisi2
 136              		.loc 1 141 33
 137 000e 1360     		str	r3, [r2]
 142:Drivers/STM32F10x_StdPeriph_Driver/src/stm32f10x_pwr.c **** }
 138              		.loc 1 142 1
 139 0010 00BF     		nop
 140 0012 0C37     		adds	r7, r7, #12
 141              	.LCFI11:
 142              		.cfi_def_cfa_offset 4
 143 0014 BD46     		mov	sp, r7
 144              	.LCFI12:
 145              		.cfi_def_cfa_register 13
 146              		@ sp needed
 147 0016 80BC     		pop	{r7}
 148              	.LCFI13:
ARM GAS  C:\Users\Admin\AppData\Local\Temp\ccmPaHrb.s 			page 6


 149              		.cfi_restore 7
 150              		.cfi_def_cfa_offset 0
 151 0018 7047     		bx	lr
 152              	.L7:
 153 001a 00BF     		.align	2
 154              	.L6:
 155 001c 10000E42 		.word	1108213776
 156              		.cfi_endproc
 157              	.LFE67:
 159              		.section	.text.PWR_PVDLevelConfig,"ax",%progbits
 160              		.align	1
 161              		.global	PWR_PVDLevelConfig
 162              		.syntax unified
 163              		.thumb
 164              		.thumb_func
 166              	PWR_PVDLevelConfig:
 167              	.LFB68:
 143:Drivers/STM32F10x_StdPeriph_Driver/src/stm32f10x_pwr.c **** 
 144:Drivers/STM32F10x_StdPeriph_Driver/src/stm32f10x_pwr.c **** /**
 145:Drivers/STM32F10x_StdPeriph_Driver/src/stm32f10x_pwr.c ****   * @brief  Configures the voltage threshold detected by the Power Voltage Detector(PVD).
 146:Drivers/STM32F10x_StdPeriph_Driver/src/stm32f10x_pwr.c ****   * @param  PWR_PVDLevel: specifies the PVD detection level
 147:Drivers/STM32F10x_StdPeriph_Driver/src/stm32f10x_pwr.c ****   *   This parameter can be one of the following values:
 148:Drivers/STM32F10x_StdPeriph_Driver/src/stm32f10x_pwr.c ****   *     @arg PWR_PVDLevel_2V2: PVD detection level set to 2.2V
 149:Drivers/STM32F10x_StdPeriph_Driver/src/stm32f10x_pwr.c ****   *     @arg PWR_PVDLevel_2V3: PVD detection level set to 2.3V
 150:Drivers/STM32F10x_StdPeriph_Driver/src/stm32f10x_pwr.c ****   *     @arg PWR_PVDLevel_2V4: PVD detection level set to 2.4V
 151:Drivers/STM32F10x_StdPeriph_Driver/src/stm32f10x_pwr.c ****   *     @arg PWR_PVDLevel_2V5: PVD detection level set to 2.5V
 152:Drivers/STM32F10x_StdPeriph_Driver/src/stm32f10x_pwr.c ****   *     @arg PWR_PVDLevel_2V6: PVD detection level set to 2.6V
 153:Drivers/STM32F10x_StdPeriph_Driver/src/stm32f10x_pwr.c ****   *     @arg PWR_PVDLevel_2V7: PVD detection level set to 2.7V
 154:Drivers/STM32F10x_StdPeriph_Driver/src/stm32f10x_pwr.c ****   *     @arg PWR_PVDLevel_2V8: PVD detection level set to 2.8V
 155:Drivers/STM32F10x_StdPeriph_Driver/src/stm32f10x_pwr.c ****   *     @arg PWR_PVDLevel_2V9: PVD detection level set to 2.9V
 156:Drivers/STM32F10x_StdPeriph_Driver/src/stm32f10x_pwr.c ****   * @retval None
 157:Drivers/STM32F10x_StdPeriph_Driver/src/stm32f10x_pwr.c ****   */
 158:Drivers/STM32F10x_StdPeriph_Driver/src/stm32f10x_pwr.c **** void PWR_PVDLevelConfig(uint32_t PWR_PVDLevel)
 159:Drivers/STM32F10x_StdPeriph_Driver/src/stm32f10x_pwr.c **** {
 168              		.loc 1 159 1
 169              		.cfi_startproc
 170              		@ args = 0, pretend = 0, frame = 16
 171              		@ frame_needed = 1, uses_anonymous_args = 0
 172              		@ link register save eliminated.
 173 0000 80B4     		push	{r7}
 174              	.LCFI14:
 175              		.cfi_def_cfa_offset 4
 176              		.cfi_offset 7, -4
 177 0002 85B0     		sub	sp, sp, #20
 178              	.LCFI15:
 179              		.cfi_def_cfa_offset 24
 180 0004 00AF     		add	r7, sp, #0
 181              	.LCFI16:
 182              		.cfi_def_cfa_register 7
 183 0006 7860     		str	r0, [r7, #4]
 160:Drivers/STM32F10x_StdPeriph_Driver/src/stm32f10x_pwr.c ****   uint32_t tmpreg = 0;
 184              		.loc 1 160 12
 185 0008 0023     		movs	r3, #0
 186 000a FB60     		str	r3, [r7, #12]
 161:Drivers/STM32F10x_StdPeriph_Driver/src/stm32f10x_pwr.c ****   /* Check the parameters */
 162:Drivers/STM32F10x_StdPeriph_Driver/src/stm32f10x_pwr.c ****   assert_param(IS_PWR_PVD_LEVEL(PWR_PVDLevel));
 163:Drivers/STM32F10x_StdPeriph_Driver/src/stm32f10x_pwr.c ****   tmpreg = PWR->CR;
ARM GAS  C:\Users\Admin\AppData\Local\Temp\ccmPaHrb.s 			page 7


 187              		.loc 1 163 15
 188 000c 094B     		ldr	r3, .L9
 189              		.loc 1 163 10
 190 000e 1B68     		ldr	r3, [r3]
 191 0010 FB60     		str	r3, [r7, #12]
 164:Drivers/STM32F10x_StdPeriph_Driver/src/stm32f10x_pwr.c ****   /* Clear PLS[7:5] bits */
 165:Drivers/STM32F10x_StdPeriph_Driver/src/stm32f10x_pwr.c ****   tmpreg &= CR_PLS_MASK;
 192              		.loc 1 165 10
 193 0012 FB68     		ldr	r3, [r7, #12]
 194 0014 23F0E003 		bic	r3, r3, #224
 195 0018 FB60     		str	r3, [r7, #12]
 166:Drivers/STM32F10x_StdPeriph_Driver/src/stm32f10x_pwr.c ****   /* Set PLS[7:5] bits according to PWR_PVDLevel value */
 167:Drivers/STM32F10x_StdPeriph_Driver/src/stm32f10x_pwr.c ****   tmpreg |= PWR_PVDLevel;
 196              		.loc 1 167 10
 197 001a FA68     		ldr	r2, [r7, #12]
 198 001c 7B68     		ldr	r3, [r7, #4]
 199 001e 1343     		orrs	r3, r3, r2
 200 0020 FB60     		str	r3, [r7, #12]
 168:Drivers/STM32F10x_StdPeriph_Driver/src/stm32f10x_pwr.c ****   /* Store the new value */
 169:Drivers/STM32F10x_StdPeriph_Driver/src/stm32f10x_pwr.c ****   PWR->CR = tmpreg;
 201              		.loc 1 169 6
 202 0022 044A     		ldr	r2, .L9
 203              		.loc 1 169 11
 204 0024 FB68     		ldr	r3, [r7, #12]
 205 0026 1360     		str	r3, [r2]
 170:Drivers/STM32F10x_StdPeriph_Driver/src/stm32f10x_pwr.c **** }
 206              		.loc 1 170 1
 207 0028 00BF     		nop
 208 002a 1437     		adds	r7, r7, #20
 209              	.LCFI17:
 210              		.cfi_def_cfa_offset 4
 211 002c BD46     		mov	sp, r7
 212              	.LCFI18:
 213              		.cfi_def_cfa_register 13
 214              		@ sp needed
 215 002e 80BC     		pop	{r7}
 216              	.LCFI19:
 217              		.cfi_restore 7
 218              		.cfi_def_cfa_offset 0
 219 0030 7047     		bx	lr
 220              	.L10:
 221 0032 00BF     		.align	2
 222              	.L9:
 223 0034 00700040 		.word	1073770496
 224              		.cfi_endproc
 225              	.LFE68:
 227              		.section	.text.PWR_WakeUpPinCmd,"ax",%progbits
 228              		.align	1
 229              		.global	PWR_WakeUpPinCmd
 230              		.syntax unified
 231              		.thumb
 232              		.thumb_func
 234              	PWR_WakeUpPinCmd:
 235              	.LFB69:
 171:Drivers/STM32F10x_StdPeriph_Driver/src/stm32f10x_pwr.c **** 
 172:Drivers/STM32F10x_StdPeriph_Driver/src/stm32f10x_pwr.c **** /**
 173:Drivers/STM32F10x_StdPeriph_Driver/src/stm32f10x_pwr.c ****   * @brief  Enables or disables the WakeUp Pin functionality.
ARM GAS  C:\Users\Admin\AppData\Local\Temp\ccmPaHrb.s 			page 8


 174:Drivers/STM32F10x_StdPeriph_Driver/src/stm32f10x_pwr.c ****   * @param  NewState: new state of the WakeUp Pin functionality.
 175:Drivers/STM32F10x_StdPeriph_Driver/src/stm32f10x_pwr.c ****   *   This parameter can be: ENABLE or DISABLE.
 176:Drivers/STM32F10x_StdPeriph_Driver/src/stm32f10x_pwr.c ****   * @retval None
 177:Drivers/STM32F10x_StdPeriph_Driver/src/stm32f10x_pwr.c ****   */
 178:Drivers/STM32F10x_StdPeriph_Driver/src/stm32f10x_pwr.c **** void PWR_WakeUpPinCmd(FunctionalState NewState)
 179:Drivers/STM32F10x_StdPeriph_Driver/src/stm32f10x_pwr.c **** {
 236              		.loc 1 179 1
 237              		.cfi_startproc
 238              		@ args = 0, pretend = 0, frame = 8
 239              		@ frame_needed = 1, uses_anonymous_args = 0
 240              		@ link register save eliminated.
 241 0000 80B4     		push	{r7}
 242              	.LCFI20:
 243              		.cfi_def_cfa_offset 4
 244              		.cfi_offset 7, -4
 245 0002 83B0     		sub	sp, sp, #12
 246              	.LCFI21:
 247              		.cfi_def_cfa_offset 16
 248 0004 00AF     		add	r7, sp, #0
 249              	.LCFI22:
 250              		.cfi_def_cfa_register 7
 251 0006 0346     		mov	r3, r0
 252 0008 FB71     		strb	r3, [r7, #7]
 180:Drivers/STM32F10x_StdPeriph_Driver/src/stm32f10x_pwr.c ****   /* Check the parameters */
 181:Drivers/STM32F10x_StdPeriph_Driver/src/stm32f10x_pwr.c ****   assert_param(IS_FUNCTIONAL_STATE(NewState));
 182:Drivers/STM32F10x_StdPeriph_Driver/src/stm32f10x_pwr.c ****   *(__IO uint32_t *) CSR_EWUP_BB = (uint32_t)NewState;
 253              		.loc 1 182 3
 254 000a 044A     		ldr	r2, .L12
 255              		.loc 1 182 36
 256 000c FB79     		ldrb	r3, [r7, #7]	@ zero_extendqisi2
 257              		.loc 1 182 34
 258 000e 1360     		str	r3, [r2]
 183:Drivers/STM32F10x_StdPeriph_Driver/src/stm32f10x_pwr.c **** }
 259              		.loc 1 183 1
 260 0010 00BF     		nop
 261 0012 0C37     		adds	r7, r7, #12
 262              	.LCFI23:
 263              		.cfi_def_cfa_offset 4
 264 0014 BD46     		mov	sp, r7
 265              	.LCFI24:
 266              		.cfi_def_cfa_register 13
 267              		@ sp needed
 268 0016 80BC     		pop	{r7}
 269              	.LCFI25:
 270              		.cfi_restore 7
 271              		.cfi_def_cfa_offset 0
 272 0018 7047     		bx	lr
 273              	.L13:
 274 001a 00BF     		.align	2
 275              	.L12:
 276 001c A0000E42 		.word	1108213920
 277              		.cfi_endproc
 278              	.LFE69:
 280              		.section	.text.PWR_EnterSTOPMode,"ax",%progbits
 281              		.align	1
 282              		.global	PWR_EnterSTOPMode
 283              		.syntax unified
ARM GAS  C:\Users\Admin\AppData\Local\Temp\ccmPaHrb.s 			page 9


 284              		.thumb
 285              		.thumb_func
 287              	PWR_EnterSTOPMode:
 288              	.LFB70:
 184:Drivers/STM32F10x_StdPeriph_Driver/src/stm32f10x_pwr.c **** 
 185:Drivers/STM32F10x_StdPeriph_Driver/src/stm32f10x_pwr.c **** /**
 186:Drivers/STM32F10x_StdPeriph_Driver/src/stm32f10x_pwr.c ****   * @brief  Enters STOP mode.
 187:Drivers/STM32F10x_StdPeriph_Driver/src/stm32f10x_pwr.c ****   * @param  PWR_Regulator: specifies the regulator state in STOP mode.
 188:Drivers/STM32F10x_StdPeriph_Driver/src/stm32f10x_pwr.c ****   *   This parameter can be one of the following values:
 189:Drivers/STM32F10x_StdPeriph_Driver/src/stm32f10x_pwr.c ****   *     @arg PWR_Regulator_ON: STOP mode with regulator ON
 190:Drivers/STM32F10x_StdPeriph_Driver/src/stm32f10x_pwr.c ****   *     @arg PWR_Regulator_LowPower: STOP mode with regulator in low power mode
 191:Drivers/STM32F10x_StdPeriph_Driver/src/stm32f10x_pwr.c ****   * @param  PWR_STOPEntry: specifies if STOP mode in entered with WFI or WFE instruction.
 192:Drivers/STM32F10x_StdPeriph_Driver/src/stm32f10x_pwr.c ****   *   This parameter can be one of the following values:
 193:Drivers/STM32F10x_StdPeriph_Driver/src/stm32f10x_pwr.c ****   *     @arg PWR_STOPEntry_WFI: enter STOP mode with WFI instruction
 194:Drivers/STM32F10x_StdPeriph_Driver/src/stm32f10x_pwr.c ****   *     @arg PWR_STOPEntry_WFE: enter STOP mode with WFE instruction
 195:Drivers/STM32F10x_StdPeriph_Driver/src/stm32f10x_pwr.c ****   * @retval None
 196:Drivers/STM32F10x_StdPeriph_Driver/src/stm32f10x_pwr.c ****   */
 197:Drivers/STM32F10x_StdPeriph_Driver/src/stm32f10x_pwr.c **** void PWR_EnterSTOPMode(uint32_t PWR_Regulator, uint8_t PWR_STOPEntry)
 198:Drivers/STM32F10x_StdPeriph_Driver/src/stm32f10x_pwr.c **** {
 289              		.loc 1 198 1
 290              		.cfi_startproc
 291              		@ args = 0, pretend = 0, frame = 16
 292              		@ frame_needed = 1, uses_anonymous_args = 0
 293              		@ link register save eliminated.
 294 0000 80B4     		push	{r7}
 295              	.LCFI26:
 296              		.cfi_def_cfa_offset 4
 297              		.cfi_offset 7, -4
 298 0002 85B0     		sub	sp, sp, #20
 299              	.LCFI27:
 300              		.cfi_def_cfa_offset 24
 301 0004 00AF     		add	r7, sp, #0
 302              	.LCFI28:
 303              		.cfi_def_cfa_register 7
 304 0006 7860     		str	r0, [r7, #4]
 305 0008 0B46     		mov	r3, r1
 306 000a FB70     		strb	r3, [r7, #3]
 199:Drivers/STM32F10x_StdPeriph_Driver/src/stm32f10x_pwr.c ****   uint32_t tmpreg = 0;
 307              		.loc 1 199 12
 308 000c 0023     		movs	r3, #0
 309 000e FB60     		str	r3, [r7, #12]
 200:Drivers/STM32F10x_StdPeriph_Driver/src/stm32f10x_pwr.c ****   /* Check the parameters */
 201:Drivers/STM32F10x_StdPeriph_Driver/src/stm32f10x_pwr.c ****   assert_param(IS_PWR_REGULATOR(PWR_Regulator));
 202:Drivers/STM32F10x_StdPeriph_Driver/src/stm32f10x_pwr.c ****   assert_param(IS_PWR_STOP_ENTRY(PWR_STOPEntry));
 203:Drivers/STM32F10x_StdPeriph_Driver/src/stm32f10x_pwr.c ****   
 204:Drivers/STM32F10x_StdPeriph_Driver/src/stm32f10x_pwr.c ****   /* Select the regulator state in STOP mode ---------------------------------*/
 205:Drivers/STM32F10x_StdPeriph_Driver/src/stm32f10x_pwr.c ****   tmpreg = PWR->CR;
 310              		.loc 1 205 15
 311 0010 124B     		ldr	r3, .L17
 312              		.loc 1 205 10
 313 0012 1B68     		ldr	r3, [r3]
 314 0014 FB60     		str	r3, [r7, #12]
 206:Drivers/STM32F10x_StdPeriph_Driver/src/stm32f10x_pwr.c ****   /* Clear PDDS and LPDS bits */
 207:Drivers/STM32F10x_StdPeriph_Driver/src/stm32f10x_pwr.c ****   tmpreg &= CR_DS_MASK;
 315              		.loc 1 207 10
 316 0016 FB68     		ldr	r3, [r7, #12]
 317 0018 23F00303 		bic	r3, r3, #3
ARM GAS  C:\Users\Admin\AppData\Local\Temp\ccmPaHrb.s 			page 10


 318 001c FB60     		str	r3, [r7, #12]
 208:Drivers/STM32F10x_StdPeriph_Driver/src/stm32f10x_pwr.c ****   /* Set LPDS bit according to PWR_Regulator value */
 209:Drivers/STM32F10x_StdPeriph_Driver/src/stm32f10x_pwr.c ****   tmpreg |= PWR_Regulator;
 319              		.loc 1 209 10
 320 001e FA68     		ldr	r2, [r7, #12]
 321 0020 7B68     		ldr	r3, [r7, #4]
 322 0022 1343     		orrs	r3, r3, r2
 323 0024 FB60     		str	r3, [r7, #12]
 210:Drivers/STM32F10x_StdPeriph_Driver/src/stm32f10x_pwr.c ****   /* Store the new value */
 211:Drivers/STM32F10x_StdPeriph_Driver/src/stm32f10x_pwr.c ****   PWR->CR = tmpreg;
 324              		.loc 1 211 6
 325 0026 0D4A     		ldr	r2, .L17
 326              		.loc 1 211 11
 327 0028 FB68     		ldr	r3, [r7, #12]
 328 002a 1360     		str	r3, [r2]
 212:Drivers/STM32F10x_StdPeriph_Driver/src/stm32f10x_pwr.c ****   /* Set SLEEPDEEP bit of Cortex System Control Register */
 213:Drivers/STM32F10x_StdPeriph_Driver/src/stm32f10x_pwr.c ****   SCB->SCR |= SCB_SCR_SLEEPDEEP;
 329              		.loc 1 213 12
 330 002c 0C4B     		ldr	r3, .L17+4
 331 002e 1B69     		ldr	r3, [r3, #16]
 332 0030 0B4A     		ldr	r2, .L17+4
 333 0032 43F00403 		orr	r3, r3, #4
 334 0036 1361     		str	r3, [r2, #16]
 214:Drivers/STM32F10x_StdPeriph_Driver/src/stm32f10x_pwr.c ****   
 215:Drivers/STM32F10x_StdPeriph_Driver/src/stm32f10x_pwr.c ****   /* Select STOP mode entry --------------------------------------------------*/
 216:Drivers/STM32F10x_StdPeriph_Driver/src/stm32f10x_pwr.c ****   if(PWR_STOPEntry == PWR_STOPEntry_WFI)
 335              		.loc 1 216 5
 336 0038 FB78     		ldrb	r3, [r7, #3]	@ zero_extendqisi2
 337 003a 012B     		cmp	r3, #1
 338 003c 01D1     		bne	.L15
 217:Drivers/STM32F10x_StdPeriph_Driver/src/stm32f10x_pwr.c ****   {   
 218:Drivers/STM32F10x_StdPeriph_Driver/src/stm32f10x_pwr.c ****     /* Request Wait For Interrupt */
 219:Drivers/STM32F10x_StdPeriph_Driver/src/stm32f10x_pwr.c ****     __WFI();
 339              		.loc 1 219 5
 340              		.syntax unified
 341              	@ 219 "Drivers/STM32F10x_StdPeriph_Driver/src/stm32f10x_pwr.c" 1
 342 003e 30BF     		wfi
 343              	@ 0 "" 2
 344              		.thumb
 345              		.syntax unified
 346 0040 00E0     		b	.L16
 347              	.L15:
 220:Drivers/STM32F10x_StdPeriph_Driver/src/stm32f10x_pwr.c ****   }
 221:Drivers/STM32F10x_StdPeriph_Driver/src/stm32f10x_pwr.c ****   else
 222:Drivers/STM32F10x_StdPeriph_Driver/src/stm32f10x_pwr.c ****   {
 223:Drivers/STM32F10x_StdPeriph_Driver/src/stm32f10x_pwr.c ****     /* Request Wait For Event */
 224:Drivers/STM32F10x_StdPeriph_Driver/src/stm32f10x_pwr.c ****     __WFE();
 348              		.loc 1 224 5
 349              		.syntax unified
 350              	@ 224 "Drivers/STM32F10x_StdPeriph_Driver/src/stm32f10x_pwr.c" 1
 351 0042 20BF     		wfe
 352              	@ 0 "" 2
 353              		.thumb
 354              		.syntax unified
 355              	.L16:
 225:Drivers/STM32F10x_StdPeriph_Driver/src/stm32f10x_pwr.c ****   }
 226:Drivers/STM32F10x_StdPeriph_Driver/src/stm32f10x_pwr.c ****   
ARM GAS  C:\Users\Admin\AppData\Local\Temp\ccmPaHrb.s 			page 11


 227:Drivers/STM32F10x_StdPeriph_Driver/src/stm32f10x_pwr.c ****   /* Reset SLEEPDEEP bit of Cortex System Control Register */
 228:Drivers/STM32F10x_StdPeriph_Driver/src/stm32f10x_pwr.c ****   SCB->SCR &= (uint32_t)~((uint32_t)SCB_SCR_SLEEPDEEP);  
 356              		.loc 1 228 12
 357 0044 064B     		ldr	r3, .L17+4
 358 0046 1B69     		ldr	r3, [r3, #16]
 359 0048 054A     		ldr	r2, .L17+4
 360 004a 23F00403 		bic	r3, r3, #4
 361 004e 1361     		str	r3, [r2, #16]
 229:Drivers/STM32F10x_StdPeriph_Driver/src/stm32f10x_pwr.c **** }
 362              		.loc 1 229 1
 363 0050 00BF     		nop
 364 0052 1437     		adds	r7, r7, #20
 365              	.LCFI29:
 366              		.cfi_def_cfa_offset 4
 367 0054 BD46     		mov	sp, r7
 368              	.LCFI30:
 369              		.cfi_def_cfa_register 13
 370              		@ sp needed
 371 0056 80BC     		pop	{r7}
 372              	.LCFI31:
 373              		.cfi_restore 7
 374              		.cfi_def_cfa_offset 0
 375 0058 7047     		bx	lr
 376              	.L18:
 377 005a 00BF     		.align	2
 378              	.L17:
 379 005c 00700040 		.word	1073770496
 380 0060 00ED00E0 		.word	-536810240
 381              		.cfi_endproc
 382              	.LFE70:
 384              		.section	.text.PWR_EnterSTANDBYMode,"ax",%progbits
 385              		.align	1
 386              		.global	PWR_EnterSTANDBYMode
 387              		.syntax unified
 388              		.thumb
 389              		.thumb_func
 391              	PWR_EnterSTANDBYMode:
 392              	.LFB71:
 230:Drivers/STM32F10x_StdPeriph_Driver/src/stm32f10x_pwr.c **** 
 231:Drivers/STM32F10x_StdPeriph_Driver/src/stm32f10x_pwr.c **** /**
 232:Drivers/STM32F10x_StdPeriph_Driver/src/stm32f10x_pwr.c ****   * @brief  Enters STANDBY mode.
 233:Drivers/STM32F10x_StdPeriph_Driver/src/stm32f10x_pwr.c ****   * @param  None
 234:Drivers/STM32F10x_StdPeriph_Driver/src/stm32f10x_pwr.c ****   * @retval None
 235:Drivers/STM32F10x_StdPeriph_Driver/src/stm32f10x_pwr.c ****   */
 236:Drivers/STM32F10x_StdPeriph_Driver/src/stm32f10x_pwr.c **** void PWR_EnterSTANDBYMode(void)
 237:Drivers/STM32F10x_StdPeriph_Driver/src/stm32f10x_pwr.c **** {
 393              		.loc 1 237 1
 394              		.cfi_startproc
 395              		@ args = 0, pretend = 0, frame = 0
 396              		@ frame_needed = 1, uses_anonymous_args = 0
 397              		@ link register save eliminated.
 398 0000 80B4     		push	{r7}
 399              	.LCFI32:
 400              		.cfi_def_cfa_offset 4
 401              		.cfi_offset 7, -4
 402 0002 00AF     		add	r7, sp, #0
 403              	.LCFI33:
ARM GAS  C:\Users\Admin\AppData\Local\Temp\ccmPaHrb.s 			page 12


 404              		.cfi_def_cfa_register 7
 238:Drivers/STM32F10x_StdPeriph_Driver/src/stm32f10x_pwr.c ****   /* Clear Wake-up flag */
 239:Drivers/STM32F10x_StdPeriph_Driver/src/stm32f10x_pwr.c ****   PWR->CR |= PWR_CR_CWUF;
 405              		.loc 1 239 11
 406 0004 0B4B     		ldr	r3, .L20
 407 0006 1B68     		ldr	r3, [r3]
 408 0008 0A4A     		ldr	r2, .L20
 409 000a 43F00403 		orr	r3, r3, #4
 410 000e 1360     		str	r3, [r2]
 240:Drivers/STM32F10x_StdPeriph_Driver/src/stm32f10x_pwr.c ****   /* Select STANDBY mode */
 241:Drivers/STM32F10x_StdPeriph_Driver/src/stm32f10x_pwr.c ****   PWR->CR |= PWR_CR_PDDS;
 411              		.loc 1 241 11
 412 0010 084B     		ldr	r3, .L20
 413 0012 1B68     		ldr	r3, [r3]
 414 0014 074A     		ldr	r2, .L20
 415 0016 43F00203 		orr	r3, r3, #2
 416 001a 1360     		str	r3, [r2]
 242:Drivers/STM32F10x_StdPeriph_Driver/src/stm32f10x_pwr.c ****   /* Set SLEEPDEEP bit of Cortex System Control Register */
 243:Drivers/STM32F10x_StdPeriph_Driver/src/stm32f10x_pwr.c ****   SCB->SCR |= SCB_SCR_SLEEPDEEP;
 417              		.loc 1 243 12
 418 001c 064B     		ldr	r3, .L20+4
 419 001e 1B69     		ldr	r3, [r3, #16]
 420 0020 054A     		ldr	r2, .L20+4
 421 0022 43F00403 		orr	r3, r3, #4
 422 0026 1361     		str	r3, [r2, #16]
 244:Drivers/STM32F10x_StdPeriph_Driver/src/stm32f10x_pwr.c **** /* This option is used to ensure that store operations are completed */
 245:Drivers/STM32F10x_StdPeriph_Driver/src/stm32f10x_pwr.c **** #if defined ( __CC_ARM   )
 246:Drivers/STM32F10x_StdPeriph_Driver/src/stm32f10x_pwr.c ****   __force_stores();
 247:Drivers/STM32F10x_StdPeriph_Driver/src/stm32f10x_pwr.c **** #endif
 248:Drivers/STM32F10x_StdPeriph_Driver/src/stm32f10x_pwr.c ****   /* Request Wait For Interrupt */
 249:Drivers/STM32F10x_StdPeriph_Driver/src/stm32f10x_pwr.c ****   __WFI();
 423              		.loc 1 249 3
 424              		.syntax unified
 425              	@ 249 "Drivers/STM32F10x_StdPeriph_Driver/src/stm32f10x_pwr.c" 1
 426 0028 30BF     		wfi
 427              	@ 0 "" 2
 250:Drivers/STM32F10x_StdPeriph_Driver/src/stm32f10x_pwr.c **** }
 428              		.loc 1 250 1
 429              		.thumb
 430              		.syntax unified
 431 002a 00BF     		nop
 432 002c BD46     		mov	sp, r7
 433              	.LCFI34:
 434              		.cfi_def_cfa_register 13
 435              		@ sp needed
 436 002e 80BC     		pop	{r7}
 437              	.LCFI35:
 438              		.cfi_restore 7
 439              		.cfi_def_cfa_offset 0
 440 0030 7047     		bx	lr
 441              	.L21:
 442 0032 00BF     		.align	2
 443              	.L20:
 444 0034 00700040 		.word	1073770496
 445 0038 00ED00E0 		.word	-536810240
 446              		.cfi_endproc
 447              	.LFE71:
ARM GAS  C:\Users\Admin\AppData\Local\Temp\ccmPaHrb.s 			page 13


 449              		.section	.text.PWR_GetFlagStatus,"ax",%progbits
 450              		.align	1
 451              		.global	PWR_GetFlagStatus
 452              		.syntax unified
 453              		.thumb
 454              		.thumb_func
 456              	PWR_GetFlagStatus:
 457              	.LFB72:
 251:Drivers/STM32F10x_StdPeriph_Driver/src/stm32f10x_pwr.c **** 
 252:Drivers/STM32F10x_StdPeriph_Driver/src/stm32f10x_pwr.c **** /**
 253:Drivers/STM32F10x_StdPeriph_Driver/src/stm32f10x_pwr.c ****   * @brief  Checks whether the specified PWR flag is set or not.
 254:Drivers/STM32F10x_StdPeriph_Driver/src/stm32f10x_pwr.c ****   * @param  PWR_FLAG: specifies the flag to check.
 255:Drivers/STM32F10x_StdPeriph_Driver/src/stm32f10x_pwr.c ****   *   This parameter can be one of the following values:
 256:Drivers/STM32F10x_StdPeriph_Driver/src/stm32f10x_pwr.c ****   *     @arg PWR_FLAG_WU: Wake Up flag
 257:Drivers/STM32F10x_StdPeriph_Driver/src/stm32f10x_pwr.c ****   *     @arg PWR_FLAG_SB: StandBy flag
 258:Drivers/STM32F10x_StdPeriph_Driver/src/stm32f10x_pwr.c ****   *     @arg PWR_FLAG_PVDO: PVD Output
 259:Drivers/STM32F10x_StdPeriph_Driver/src/stm32f10x_pwr.c ****   * @retval The new state of PWR_FLAG (SET or RESET).
 260:Drivers/STM32F10x_StdPeriph_Driver/src/stm32f10x_pwr.c ****   */
 261:Drivers/STM32F10x_StdPeriph_Driver/src/stm32f10x_pwr.c **** FlagStatus PWR_GetFlagStatus(uint32_t PWR_FLAG)
 262:Drivers/STM32F10x_StdPeriph_Driver/src/stm32f10x_pwr.c **** {
 458              		.loc 1 262 1
 459              		.cfi_startproc
 460              		@ args = 0, pretend = 0, frame = 16
 461              		@ frame_needed = 1, uses_anonymous_args = 0
 462              		@ link register save eliminated.
 463 0000 80B4     		push	{r7}
 464              	.LCFI36:
 465              		.cfi_def_cfa_offset 4
 466              		.cfi_offset 7, -4
 467 0002 85B0     		sub	sp, sp, #20
 468              	.LCFI37:
 469              		.cfi_def_cfa_offset 24
 470 0004 00AF     		add	r7, sp, #0
 471              	.LCFI38:
 472              		.cfi_def_cfa_register 7
 473 0006 7860     		str	r0, [r7, #4]
 263:Drivers/STM32F10x_StdPeriph_Driver/src/stm32f10x_pwr.c ****   FlagStatus bitstatus = RESET;
 474              		.loc 1 263 14
 475 0008 0023     		movs	r3, #0
 476 000a FB73     		strb	r3, [r7, #15]
 264:Drivers/STM32F10x_StdPeriph_Driver/src/stm32f10x_pwr.c ****   /* Check the parameters */
 265:Drivers/STM32F10x_StdPeriph_Driver/src/stm32f10x_pwr.c ****   assert_param(IS_PWR_GET_FLAG(PWR_FLAG));
 266:Drivers/STM32F10x_StdPeriph_Driver/src/stm32f10x_pwr.c ****   
 267:Drivers/STM32F10x_StdPeriph_Driver/src/stm32f10x_pwr.c ****   if ((PWR->CSR & PWR_FLAG) != (uint32_t)RESET)
 477              		.loc 1 267 11
 478 000c 084B     		ldr	r3, .L26
 479 000e 5A68     		ldr	r2, [r3, #4]
 480              		.loc 1 267 17
 481 0010 7B68     		ldr	r3, [r7, #4]
 482 0012 1340     		ands	r3, r3, r2
 483              		.loc 1 267 6
 484 0014 002B     		cmp	r3, #0
 485 0016 02D0     		beq	.L23
 268:Drivers/STM32F10x_StdPeriph_Driver/src/stm32f10x_pwr.c ****   {
 269:Drivers/STM32F10x_StdPeriph_Driver/src/stm32f10x_pwr.c ****     bitstatus = SET;
 486              		.loc 1 269 15
 487 0018 0123     		movs	r3, #1
ARM GAS  C:\Users\Admin\AppData\Local\Temp\ccmPaHrb.s 			page 14


 488 001a FB73     		strb	r3, [r7, #15]
 489 001c 01E0     		b	.L24
 490              	.L23:
 270:Drivers/STM32F10x_StdPeriph_Driver/src/stm32f10x_pwr.c ****   }
 271:Drivers/STM32F10x_StdPeriph_Driver/src/stm32f10x_pwr.c ****   else
 272:Drivers/STM32F10x_StdPeriph_Driver/src/stm32f10x_pwr.c ****   {
 273:Drivers/STM32F10x_StdPeriph_Driver/src/stm32f10x_pwr.c ****     bitstatus = RESET;
 491              		.loc 1 273 15
 492 001e 0023     		movs	r3, #0
 493 0020 FB73     		strb	r3, [r7, #15]
 494              	.L24:
 274:Drivers/STM32F10x_StdPeriph_Driver/src/stm32f10x_pwr.c ****   }
 275:Drivers/STM32F10x_StdPeriph_Driver/src/stm32f10x_pwr.c ****   /* Return the flag status */
 276:Drivers/STM32F10x_StdPeriph_Driver/src/stm32f10x_pwr.c ****   return bitstatus;
 495              		.loc 1 276 10
 496 0022 FB7B     		ldrb	r3, [r7, #15]	@ zero_extendqisi2
 277:Drivers/STM32F10x_StdPeriph_Driver/src/stm32f10x_pwr.c **** }
 497              		.loc 1 277 1
 498 0024 1846     		mov	r0, r3
 499 0026 1437     		adds	r7, r7, #20
 500              	.LCFI39:
 501              		.cfi_def_cfa_offset 4
 502 0028 BD46     		mov	sp, r7
 503              	.LCFI40:
 504              		.cfi_def_cfa_register 13
 505              		@ sp needed
 506 002a 80BC     		pop	{r7}
 507              	.LCFI41:
 508              		.cfi_restore 7
 509              		.cfi_def_cfa_offset 0
 510 002c 7047     		bx	lr
 511              	.L27:
 512 002e 00BF     		.align	2
 513              	.L26:
 514 0030 00700040 		.word	1073770496
 515              		.cfi_endproc
 516              	.LFE72:
 518              		.section	.text.PWR_ClearFlag,"ax",%progbits
 519              		.align	1
 520              		.global	PWR_ClearFlag
 521              		.syntax unified
 522              		.thumb
 523              		.thumb_func
 525              	PWR_ClearFlag:
 526              	.LFB73:
 278:Drivers/STM32F10x_StdPeriph_Driver/src/stm32f10x_pwr.c **** 
 279:Drivers/STM32F10x_StdPeriph_Driver/src/stm32f10x_pwr.c **** /**
 280:Drivers/STM32F10x_StdPeriph_Driver/src/stm32f10x_pwr.c ****   * @brief  Clears the PWR's pending flags.
 281:Drivers/STM32F10x_StdPeriph_Driver/src/stm32f10x_pwr.c ****   * @param  PWR_FLAG: specifies the flag to clear.
 282:Drivers/STM32F10x_StdPeriph_Driver/src/stm32f10x_pwr.c ****   *   This parameter can be one of the following values:
 283:Drivers/STM32F10x_StdPeriph_Driver/src/stm32f10x_pwr.c ****   *     @arg PWR_FLAG_WU: Wake Up flag
 284:Drivers/STM32F10x_StdPeriph_Driver/src/stm32f10x_pwr.c ****   *     @arg PWR_FLAG_SB: StandBy flag
 285:Drivers/STM32F10x_StdPeriph_Driver/src/stm32f10x_pwr.c ****   * @retval None
 286:Drivers/STM32F10x_StdPeriph_Driver/src/stm32f10x_pwr.c ****   */
 287:Drivers/STM32F10x_StdPeriph_Driver/src/stm32f10x_pwr.c **** void PWR_ClearFlag(uint32_t PWR_FLAG)
 288:Drivers/STM32F10x_StdPeriph_Driver/src/stm32f10x_pwr.c **** {
 527              		.loc 1 288 1
ARM GAS  C:\Users\Admin\AppData\Local\Temp\ccmPaHrb.s 			page 15


 528              		.cfi_startproc
 529              		@ args = 0, pretend = 0, frame = 8
 530              		@ frame_needed = 1, uses_anonymous_args = 0
 531              		@ link register save eliminated.
 532 0000 80B4     		push	{r7}
 533              	.LCFI42:
 534              		.cfi_def_cfa_offset 4
 535              		.cfi_offset 7, -4
 536 0002 83B0     		sub	sp, sp, #12
 537              	.LCFI43:
 538              		.cfi_def_cfa_offset 16
 539 0004 00AF     		add	r7, sp, #0
 540              	.LCFI44:
 541              		.cfi_def_cfa_register 7
 542 0006 7860     		str	r0, [r7, #4]
 289:Drivers/STM32F10x_StdPeriph_Driver/src/stm32f10x_pwr.c ****   /* Check the parameters */
 290:Drivers/STM32F10x_StdPeriph_Driver/src/stm32f10x_pwr.c ****   assert_param(IS_PWR_CLEAR_FLAG(PWR_FLAG));
 291:Drivers/STM32F10x_StdPeriph_Driver/src/stm32f10x_pwr.c ****          
 292:Drivers/STM32F10x_StdPeriph_Driver/src/stm32f10x_pwr.c ****   PWR->CR |=  PWR_FLAG << 2;
 543              		.loc 1 292 11
 544 0008 054B     		ldr	r3, .L29
 545 000a 1A68     		ldr	r2, [r3]
 546              		.loc 1 292 24
 547 000c 7B68     		ldr	r3, [r7, #4]
 548 000e 9B00     		lsls	r3, r3, #2
 549              		.loc 1 292 11
 550 0010 0349     		ldr	r1, .L29
 551 0012 1343     		orrs	r3, r3, r2
 552 0014 0B60     		str	r3, [r1]
 293:Drivers/STM32F10x_StdPeriph_Driver/src/stm32f10x_pwr.c **** }
 553              		.loc 1 293 1
 554 0016 00BF     		nop
 555 0018 0C37     		adds	r7, r7, #12
 556              	.LCFI45:
 557              		.cfi_def_cfa_offset 4
 558 001a BD46     		mov	sp, r7
 559              	.LCFI46:
 560              		.cfi_def_cfa_register 13
 561              		@ sp needed
 562 001c 80BC     		pop	{r7}
 563              	.LCFI47:
 564              		.cfi_restore 7
 565              		.cfi_def_cfa_offset 0
 566 001e 7047     		bx	lr
 567              	.L30:
 568              		.align	2
 569              	.L29:
 570 0020 00700040 		.word	1073770496
 571              		.cfi_endproc
 572              	.LFE73:
 574              		.text
 575              	.Letext0:
 576              		.file 2 "c:\\program files (x86)\\gnu arm embedded toolchain\\10 2021.10\\arm-none-eabi\\include\\
 577              		.file 3 "c:\\program files (x86)\\gnu arm embedded toolchain\\10 2021.10\\arm-none-eabi\\include\\
 578              		.file 4 "Drivers/CMSIS/Include/core_cm3.h"
 579              		.file 5 "Drivers/CMSIS/Device/ST/STM32F1xx/Include/stm32f10x.h"
ARM GAS  C:\Users\Admin\AppData\Local\Temp\ccmPaHrb.s 			page 16

